target datalayout = "e-m:e-p270:32:32-p271:32:32-p272:64:64-i64:64-i128:128-f80:128-n8:16:32:64-S128"
target triple = "x86_64-pc-linux-gnu"

; Function Attrs: nounwind uwtable
define internal void @mininplace_fun(ptr noundef %0, ptr noundef %1, i32 noundef %2) #0 {
  %4 = alloca ptr, align 8
  %5 = alloca ptr, align 8
  %6 = alloca i32, align 4
  %7 = alloca i32, align 4
  store ptr %0, ptr %4, align 8, !tbaa !72
  store ptr %1, ptr %5, align 8, !tbaa !72
  store i32 %2, ptr %6, align 4, !tbaa !24
  call void @llvm.lifetime.start.p0(i64 4, ptr %7) #12
  store i32 0, ptr %7, align 4, !tbaa !24
  br label %8

8:                                                ; preds = %48, %3
  %9 = load i32, ptr %7, align 4, !tbaa !24
  %10 = load i32, ptr %6, align 4, !tbaa !24
  %11 = icmp slt i32 %9, %10
  br i1 %11, label %13, label %12

12:                                               ; preds = %8
  call void @llvm.lifetime.end.p0(i64 4, ptr %7) #12
  br label %51

13:                                               ; preds = %8
  %14 = load ptr, ptr %4, align 8, !tbaa !72
  %15 = load i32, ptr %7, align 4, !tbaa !24
  %16 = sext i32 %15 to i64
  %17 = getelementptr inbounds i8, ptr %14, i64 %16
  %18 = load i8, ptr %17, align 1, !tbaa !109
  %19 = zext i8 %18 to i32
  %20 = load ptr, ptr %5, align 8, !tbaa !72
  %21 = load i32, ptr %7, align 4, !tbaa !24
  %22 = sext i32 %21 to i64
  %23 = getelementptr inbounds i8, ptr %20, i64 %22
  %24 = load i8, ptr %23, align 1, !tbaa !109
  %25 = zext i8 %24 to i32
  %26 = icmp sgt i32 %19, %25
  br i1 %26, label %27, label %34

27:                                               ; preds = %13
  %28 = load ptr, ptr %5, align 8, !tbaa !72
  %29 = load i32, ptr %7, align 4, !tbaa !24
  %30 = sext i32 %29 to i64
  %31 = getelementptr inbounds i8, ptr %28, i64 %30
  %32 = load i8, ptr %31, align 1, !tbaa !109
  %33 = zext i8 %32 to i32
  br label %41

34:                                               ; preds = %13
  %35 = load ptr, ptr %4, align 8, !tbaa !72
  %36 = load i32, ptr %7, align 4, !tbaa !24
  %37 = sext i32 %36 to i64
  %38 = getelementptr inbounds i8, ptr %35, i64 %37
  %39 = load i8, ptr %38, align 1, !tbaa !109
  %40 = zext i8 %39 to i32
  br label %41

41:                                               ; preds = %34, %27
  %42 = phi i32 [ %33, %27 ], [ %40, %34 ]
  %43 = trunc i32 %42 to i8
  %44 = load ptr, ptr %4, align 8, !tbaa !72
  %45 = load i32, ptr %7, align 4, !tbaa !24
  %46 = sext i32 %45 to i64
  %47 = getelementptr inbounds i8, ptr %44, i64 %46
  store i8 %43, ptr %47, align 1, !tbaa !109
  br label %48

48:                                               ; preds = %41
  %49 = load i32, ptr %7, align 4, !tbaa !24
  %50 = add nsw i32 %49, 1
  store i32 %50, ptr %7, align 4, !tbaa !24
  br label %8, !llvm.loop !147

51:                                               ; preds = %12
  ret void
}